target datalayout = "e-m:e-p270:32:32-p271:32:32-p272:64:64-i64:64-i128:128-f80:128-n8:16:32:64-S128"
target triple = "x86_64-pc-linux-gnu"

; Function Attrs: nounwind uwtable
define dso_local i32 @zipTryEncoding(ptr noundef %0, i32 noundef %1, ptr noundef %2, ptr noundef %3) #0 {
  %5 = alloca i32, align 4
  %6 = alloca ptr, align 8
  %7 = alloca i32, align 4
  %8 = alloca ptr, align 8
  %9 = alloca ptr, align 8
  %10 = alloca i64, align 8
  %11 = alloca i32, align 4
  store ptr %0, ptr %6, align 8, !tbaa !5
  store i32 %1, ptr %7, align 4, !tbaa !12
  store ptr %2, ptr %8, align 8, !tbaa !15
  store ptr %3, ptr %9, align 8, !tbaa !5
  call void @llvm.lifetime.start.p0(i64 8, ptr %10) #11
  %12 = load i32, ptr %7, align 4, !tbaa !12
  %13 = icmp uge i32 %12, 32
  br i1 %13, label %17, label %14

14:                                               ; preds = %4
  %15 = load i32, ptr %7, align 4, !tbaa !12
  %16 = icmp eq i32 %15, 0
  br i1 %16, label %17, label %18

17:                                               ; preds = %14, %4
  store i32 0, ptr %5, align 4
  store i32 1, ptr %11, align 4
  br label %77

18:                                               ; preds = %14
  %19 = load ptr, ptr %6, align 8, !tbaa !5
  %20 = load i32, ptr %7, align 4, !tbaa !12
  %21 = zext i32 %20 to i64
  %22 = call i32 @string2ll(ptr noundef %19, i64 noundef %21, ptr noundef %10)
  %23 = icmp ne i32 %22, 0
  br i1 %23, label %24, label %76

24:                                               ; preds = %18
  %25 = load i64, ptr %10, align 8, !tbaa !17
  %26 = icmp sge i64 %25, 0
  br i1 %26, label %27, label %35

27:                                               ; preds = %24
  %28 = load i64, ptr %10, align 8, !tbaa !17
  %29 = icmp sle i64 %28, 12
  br i1 %29, label %30, label %35

30:                                               ; preds = %27
  %31 = load i64, ptr %10, align 8, !tbaa !17
  %32 = add nsw i64 241, %31
  %33 = trunc i64 %32 to i8
  %34 = load ptr, ptr %9, align 8, !tbaa !5
  store i8 %33, ptr %34, align 1, !tbaa !14
  br label %73

35:                                               ; preds = %27, %24
  %36 = load i64, ptr %10, align 8, !tbaa !17
  %37 = icmp sge i64 %36, -128
  br i1 %37, label %38, label %43

38:                                               ; preds = %35
  %39 = load i64, ptr %10, align 8, !tbaa !17
  %40 = icmp sle i64 %39, 127
  br i1 %40, label %41, label %43

41:                                               ; preds = %38
  %42 = load ptr, ptr %9, align 8, !tbaa !5
  store i8 -2, ptr %42, align 1, !tbaa !14
  br label %72

43:                                               ; preds = %38, %35
  %44 = load i64, ptr %10, align 8, !tbaa !17
  %45 = icmp sge i64 %44, -32768
  br i1 %45, label %46, label %51

46:                                               ; preds = %43
  %47 = load i64, ptr %10, align 8, !tbaa !17
  %48 = icmp sle i64 %47, 32767
  br i1 %48, label %49, label %51

49:                                               ; preds = %46
  %50 = load ptr, ptr %9, align 8, !tbaa !5
  store i8 -64, ptr %50, align 1, !tbaa !14
  br label %71

51:                                               ; preds = %46, %43
  %52 = load i64, ptr %10, align 8, !tbaa !17
  %53 = icmp sge i64 %52, -8388608
  br i1 %53, label %54, label %59

54:                                               ; preds = %51
  %55 = load i64, ptr %10, align 8, !tbaa !17
  %56 = icmp sle i64 %55, 8388607
  br i1 %56, label %57, label %59

57:                                               ; preds = %54
  %58 = load ptr, ptr %9, align 8, !tbaa !5
  store i8 -16, ptr %58, align 1, !tbaa !14
  br label %70

59:                                               ; preds = %54, %51
  %60 = load i64, ptr %10, align 8, !tbaa !17
  %61 = icmp sge i64 %60, -2147483648
  br i1 %61, label %62, label %67

62:                                               ; preds = %59
  %63 = load i64, ptr %10, align 8, !tbaa !17
  %64 = icmp sle i64 %63, 2147483647
  br i1 %64, label %65, label %67

65:                                               ; preds = %62
  %66 = load ptr, ptr %9, align 8, !tbaa !5
  store i8 -48, ptr %66, align 1, !tbaa !14
  br label %69

67:                                               ; preds = %62, %59
  %68 = load ptr, ptr %9, align 8, !tbaa !5
  store i8 -32, ptr %68, align 1, !tbaa !14
  br label %69

69:                                               ; preds = %67, %65
  br label %70

70:                                               ; preds = %69, %57
  br label %71

71:                                               ; preds = %70, %49
  br label %72

72:                                               ; preds = %71, %41
  br label %73

73:                                               ; preds = %72, %30
  %74 = load i64, ptr %10, align 8, !tbaa !17
  %75 = load ptr, ptr %8, align 8, !tbaa !15
  store i64 %74, ptr %75, align 8, !tbaa !17
  store i32 1, ptr %5, align 4
  store i32 1, ptr %11, align 4
  br label %77

76:                                               ; preds = %18
  store i32 0, ptr %5, align 4
  store i32 1, ptr %11, align 4
  br label %77

77:                                               ; preds = %76, %73, %17
  call void @llvm.lifetime.end.p0(i64 8, ptr %10) #11
  %78 = load i32, ptr %5, align 4
  ret i32 %78
}