; Function Attrs: nounwind uwtable
define dso_local range(i32 0, 2) i32 @zipTryEncoding(ptr noundef %0, i32 noundef %1, ptr noundef writeonly captures(none) %2, ptr noundef writeonly captures(none) %3) local_unnamed_addr #5 {
  %5 = alloca i64, align 8
  call void @llvm.lifetime.start.p0(i64 8, ptr nonnull %5) #17
  %6 = add i32 %1, -32
  %or.cond = icmp ult i32 %6, -31
  br i1 %or.cond, label %24, label %7

7:                                                ; preds = %4
  %8 = zext nneg i32 %1 to i64
  %9 = call i32 @string2ll(ptr noundef %0, i64 noundef %8, ptr noundef nonnull %5) #17
  %.not = icmp eq i32 %9, 0
  br i1 %.not, label %24, label %10

10:                                               ; preds = %7
  %11 = load i64, ptr %5, align 8, !tbaa !10
  %or.cond3 = icmp ult i64 %11, 13
  br i1 %or.cond3, label %12, label %15

12:                                               ; preds = %10
  %13 = trunc nuw i64 %11 to i8
  %14 = add nuw nsw i8 %13, -15
  br label %23

15:                                               ; preds = %10
  %16 = add i64 %11, 128
  %or.cond5 = icmp ult i64 %16, 256
  br i1 %or.cond5, label %23, label %17

17:                                               ; preds = %15
  %18 = add i64 %11, 32768
  %or.cond7 = icmp ult i64 %18, 65536
  br i1 %or.cond7, label %23, label %19

19:                                               ; preds = %17
  %20 = add i64 %11, 8388608
  %or.cond9 = icmp ult i64 %20, 16777216
  br i1 %or.cond9, label %23, label %21

21:                                               ; preds = %19
  %22 = add i64 %11, 2147483648
  %or.cond11 = icmp ult i64 %22, 4294967296
  %. = select i1 %or.cond11, i8 -48, i8 -32
  br label %23

23:                                               ; preds = %21, %19, %17, %15, %12
  %.sink = phi i8 [ %14, %12 ], [ -2, %15 ], [ -64, %17 ], [ -16, %19 ], [ %., %21 ]
  store i8 %.sink, ptr %3, align 1, !tbaa !9
  store i64 %11, ptr %2, align 8, !tbaa !10
  br label %24

24:                                               ; preds = %7, %4, %23
  %.0 = phi i32 [ 1, %23 ], [ 0, %4 ], [ 0, %7 ]
  call void @llvm.lifetime.end.p0(i64 8, ptr nonnull %5) #17
  ret i32 %.0
}